; Function Attrs: mustprogress uwtable
define void @_ZN10OpenSubdiv6v3_6_03Far10PatchTable23allocateVaryingVerticesENS1_15PatchDescriptorEi(ptr noundef nonnull align 8 dereferenceable(273) %0, ptr nocapture noundef readonly %1, i32 noundef %2) local_unnamed_addr #3 align 2 personality ptr @__gxx_personality_v0 {
  %4 = getelementptr inbounds nuw i8, ptr %0, i64 144
  %5 = load i32, ptr %1, align 4
  store i32 %5, ptr %4, align 8
  %6 = getelementptr inbounds nuw i8, ptr %0, i64 152
  %switch.tableidx = add i32 %5, -1
  %7 = icmp ult i32 %switch.tableidx, 10
  br i1 %7, label %switch.lookup, label %_ZNK10OpenSubdiv6v3_6_03Far15PatchDescriptor21GetNumControlVerticesEv.exit

switch.lookup:                                    ; preds = %3
  %8 = zext nneg i32 %switch.tableidx to i64
  %switch.gep = getelementptr inbounds [10 x i32], ptr @switch.table._ZNK10OpenSubdiv6v3_6_03Far10PatchTable18GetPatchFVarValuesEiii.5, i64 0, i64 %8
  %switch.load = load i32, ptr %switch.gep, align 4
  br label %_ZNK10OpenSubdiv6v3_6_03Far15PatchDescriptor21GetNumControlVerticesEv.exit

_ZNK10OpenSubdiv6v3_6_03Far15PatchDescriptor21GetNumControlVerticesEv.exit: ; preds = %3, %switch.lookup
  %.0.i.i = phi i32 [ %switch.load, %switch.lookup ], [ -1, %3 ]
  %9 = mul nsw i32 %.0.i.i, %2
  %10 = sext i32 %9 to i64
  %11 = getelementptr inbounds i8, ptr %0, i64 160
  %12 = load ptr, ptr %11, align 8
  %13 = load ptr, ptr %6, align 8
  %14 = ptrtoint ptr %12 to i64
  %15 = ptrtoint ptr %13 to i64
  %16 = sub i64 %14, %15
  %17 = ashr exact i64 %16, 2
  %18 = icmp ult i64 %17, %10
  br i1 %18, label %19, label %21

19:                                               ; preds = %_ZNK10OpenSubdiv6v3_6_03Far15PatchDescriptor21GetNumControlVerticesEv.exit
  %20 = sub nuw nsw i64 %10, %17
  tail call void @_ZNSt6vectorIiSaIiEE17_M_default_appendEm(ptr noundef nonnull align 8 dereferenceable(24) %6, i64 noundef %20)
  br label %_ZNSt6vectorIiSaIiEE6resizeEm.exit

21:                                               ; preds = %_ZNK10OpenSubdiv6v3_6_03Far15PatchDescriptor21GetNumControlVerticesEv.exit
  %22 = icmp ugt i64 %17, %10
  br i1 %22, label %23, label %_ZNSt6vectorIiSaIiEE6resizeEm.exit

23:                                               ; preds = %21
  %24 = getelementptr inbounds i32, ptr %13, i64 %10
  %.not.i.i = icmp eq ptr %12, %24
  br i1 %.not.i.i, label %_ZNSt6vectorIiSaIiEE6resizeEm.exit, label %25

25:                                               ; preds = %23
  store ptr %24, ptr %11, align 8
  br label %_ZNSt6vectorIiSaIiEE6resizeEm.exit

_ZNSt6vectorIiSaIiEE6resizeEm.exit:               ; preds = %19, %21, %23, %25
  ret void
}